target datalayout = "e-m:e-p270:32:32-p271:32:32-p272:64:64-i64:64-i128:128-f80:128-n8:16:32:64-S128"
target triple = "x86_64-pc-linux-gnu"

%struct.ossl_param_st = type { ptr, i32, ptr, i64, i64 }

@.str.16 = private unnamed_addr constant [2 x i8] c"a\00", align 1
@.str.17 = private unnamed_addr constant [34 x i8] c"../openssl/test/params_api_test.c\00", align 1
@.str.19 = private unnamed_addr constant [2 x i8] c"1\00", align 1
@.str.58 = private unnamed_addr constant [2 x i8] c"b\00", align 1
@.str.144 = private unnamed_addr constant [21 x i8] c"OSSL_PARAM_dup(NULL)\00", align 1
@.str.145 = private unnamed_addr constant [36 x i8] c"cp1 = OSSL_PARAM_merge(NULL, param)\00", align 1
@.str.146 = private unnamed_addr constant [32 x i8] c"p = OSSL_PARAM_locate(cp1, \22a\22)\00", align 1
@.str.147 = private unnamed_addr constant [28 x i8] c"OSSL_PARAM_get_int(p, &val)\00", align 1
@.str.148 = private unnamed_addr constant [4 x i8] c"val\00", align 1
@.str.149 = private unnamed_addr constant [32 x i8] c"p = OSSL_PARAM_locate(cp1, \22b\22)\00", align 1
@.str.150 = private unnamed_addr constant [2 x i8] c"2\00", align 1
@.str.151 = private unnamed_addr constant [36 x i8] c"cp2 = OSSL_PARAM_merge(param, NULL)\00", align 1
@.str.152 = private unnamed_addr constant [32 x i8] c"p = OSSL_PARAM_locate(cp2, \22a\22)\00", align 1
@.str.153 = private unnamed_addr constant [32 x i8] c"p = OSSL_PARAM_locate(cp2, \22b\22)\00", align 1
@.str.154 = private unnamed_addr constant [29 x i8] c"OSSL_PARAM_merge(NULL, NULL)\00", align 1

; Function Attrs: nounwind uwtable
define internal i32 @test_param_copy_null() #0 {
  %1 = alloca i32, align 4
  %2 = alloca i32, align 4
  %3 = alloca i32, align 4
  %4 = alloca i32, align 4
  %5 = alloca i32, align 4
  %6 = alloca ptr, align 8
  %7 = alloca ptr, align 8
  %8 = alloca ptr, align 8
  %9 = alloca [3 x %struct.ossl_param_st], align 16
  %10 = alloca %struct.ossl_param_st, align 8
  %11 = alloca %struct.ossl_param_st, align 8
  %12 = alloca %struct.ossl_param_st, align 8
  call void @llvm.lifetime.start.p0(i64 4, ptr %1) #5
  call void @llvm.lifetime.start.p0(i64 4, ptr %2) #5
  call void @llvm.lifetime.start.p0(i64 4, ptr %3) #5
  store i32 1, ptr %3, align 4, !tbaa !4
  call void @llvm.lifetime.start.p0(i64 4, ptr %4) #5
  store i32 2, ptr %4, align 4, !tbaa !4
  call void @llvm.lifetime.start.p0(i64 4, ptr %5) #5
  store i32 0, ptr %5, align 4, !tbaa !4
  call void @llvm.lifetime.start.p0(i64 8, ptr %6) #5
  store ptr null, ptr %6, align 8, !tbaa !25
  call void @llvm.lifetime.start.p0(i64 8, ptr %7) #5
  store ptr null, ptr %7, align 8, !tbaa !25
  call void @llvm.lifetime.start.p0(i64 8, ptr %8) #5
  call void @llvm.lifetime.start.p0(i64 120, ptr %9) #5
  %13 = load i32, ptr %5, align 4, !tbaa !4
  %14 = add nsw i32 %13, 1
  store i32 %14, ptr %5, align 4, !tbaa !4
  %15 = sext i32 %13 to i64
  %16 = getelementptr inbounds [3 x %struct.ossl_param_st], ptr %9, i64 0, i64 %15
  call void @llvm.lifetime.start.p0(i64 40, ptr %10) #5
  call void @OSSL_PARAM_construct_int(ptr dead_on_unwind writable sret(%struct.ossl_param_st) align 8 %10, ptr noundef @.str.16, ptr noundef %3)
  call void @llvm.memcpy.p0.p0.i64(ptr align 8 %16, ptr align 8 %10, i64 40, i1 false), !tbaa.struct !28
  call void @llvm.lifetime.end.p0(i64 40, ptr %10) #5
  %17 = load i32, ptr %5, align 4, !tbaa !4
  %18 = add nsw i32 %17, 1
  store i32 %18, ptr %5, align 4, !tbaa !4
  %19 = sext i32 %17 to i64
  %20 = getelementptr inbounds [3 x %struct.ossl_param_st], ptr %9, i64 0, i64 %19
  call void @llvm.lifetime.start.p0(i64 40, ptr %11) #5
  call void @OSSL_PARAM_construct_int(ptr dead_on_unwind writable sret(%struct.ossl_param_st) align 8 %11, ptr noundef @.str.58, ptr noundef %4)
  call void @llvm.memcpy.p0.p0.i64(ptr align 8 %20, ptr align 8 %11, i64 40, i1 false), !tbaa.struct !28
  call void @llvm.lifetime.end.p0(i64 40, ptr %11) #5
  %21 = load i32, ptr %5, align 4, !tbaa !4
  %22 = sext i32 %21 to i64
  %23 = getelementptr inbounds [3 x %struct.ossl_param_st], ptr %9, i64 0, i64 %22
  call void @llvm.lifetime.start.p0(i64 40, ptr %12) #5
  call void @OSSL_PARAM_construct_end(ptr dead_on_unwind writable sret(%struct.ossl_param_st) align 8 %12)
  call void @llvm.memcpy.p0.p0.i64(ptr align 8 %23, ptr align 8 %12, i64 40, i1 false), !tbaa.struct !28
  call void @llvm.lifetime.end.p0(i64 40, ptr %12) #5
  %24 = call ptr @OSSL_PARAM_dup(ptr noundef null)
  %25 = call i32 @test_ptr_null(ptr noundef @.str.17, i32 noundef 798, ptr noundef @.str.144, ptr noundef %24)
  %26 = icmp ne i32 %25, 0
  br i1 %26, label %27, label %105

27:                                               ; preds = %0
  %28 = getelementptr inbounds [3 x %struct.ossl_param_st], ptr %9, i64 0, i64 0
  %29 = call ptr @OSSL_PARAM_merge(ptr noundef null, ptr noundef %28)
  store ptr %29, ptr %6, align 8, !tbaa !25
  %30 = call i32 @test_ptr(ptr noundef @.str.17, i32 noundef 799, ptr noundef @.str.145, ptr noundef %29)
  %31 = icmp ne i32 %30, 0
  br i1 %31, label %32, label %105

32:                                               ; preds = %27
  %33 = load ptr, ptr %6, align 8, !tbaa !25
  %34 = call ptr @OSSL_PARAM_locate(ptr noundef %33, ptr noundef @.str.16)
  store ptr %34, ptr %8, align 8, !tbaa !25
  %35 = call i32 @test_ptr(ptr noundef @.str.17, i32 noundef 800, ptr noundef @.str.146, ptr noundef %34)
  %36 = icmp ne i32 %35, 0
  br i1 %36, label %37, label %105

37:                                               ; preds = %32
  %38 = load ptr, ptr %8, align 8, !tbaa !25
  %39 = call i32 @OSSL_PARAM_get_int(ptr noundef %38, ptr noundef %2)
  %40 = icmp ne i32 %39, 0
  %41 = zext i1 %40 to i32
  %42 = call i32 @test_true(ptr noundef @.str.17, i32 noundef 801, ptr noundef @.str.147, i32 noundef %41)
  %43 = icmp ne i32 %42, 0
  br i1 %43, label %44, label %105

44:                                               ; preds = %37
  %45 = load i32, ptr %2, align 4, !tbaa !4
  %46 = call i32 @test_int_eq(ptr noundef @.str.17, i32 noundef 802, ptr noundef @.str.148, ptr noundef @.str.19, i32 noundef %45, i32 noundef 1)
  %47 = icmp ne i32 %46, 0
  br i1 %47, label %48, label %105

48:                                               ; preds = %44
  %49 = load ptr, ptr %6, align 8, !tbaa !25
  %50 = call ptr @OSSL_PARAM_locate(ptr noundef %49, ptr noundef @.str.58)
  store ptr %50, ptr %8, align 8, !tbaa !25
  %51 = call i32 @test_ptr(ptr noundef @.str.17, i32 noundef 803, ptr noundef @.str.149, ptr noundef %50)
  %52 = icmp ne i32 %51, 0
  br i1 %52, label %53, label %105

53:                                               ; preds = %48
  %54 = load ptr, ptr %8, align 8, !tbaa !25
  %55 = call i32 @OSSL_PARAM_get_int(ptr noundef %54, ptr noundef %2)
  %56 = icmp ne i32 %55, 0
  %57 = zext i1 %56 to i32
  %58 = call i32 @test_true(ptr noundef @.str.17, i32 noundef 804, ptr noundef @.str.147, i32 noundef %57)
  %59 = icmp ne i32 %58, 0
  br i1 %59, label %60, label %105

60:                                               ; preds = %53
  %61 = load i32, ptr %2, align 4, !tbaa !4
  %62 = call i32 @test_int_eq(ptr noundef @.str.17, i32 noundef 805, ptr noundef @.str.148, ptr noundef @.str.150, i32 noundef %61, i32 noundef 2)
  %63 = icmp ne i32 %62, 0
  br i1 %63, label %64, label %105

64:                                               ; preds = %60
  %65 = getelementptr inbounds [3 x %struct.ossl_param_st], ptr %9, i64 0, i64 0
  %66 = call ptr @OSSL_PARAM_merge(ptr noundef %65, ptr noundef null)
  store ptr %66, ptr %7, align 8, !tbaa !25
  %67 = call i32 @test_ptr(ptr noundef @.str.17, i32 noundef 806, ptr noundef @.str.151, ptr noundef %66)
  %68 = icmp ne i32 %67, 0
  br i1 %68, label %69, label %105

69:                                               ; preds = %64
  %70 = load ptr, ptr %7, align 8, !tbaa !25
  %71 = call ptr @OSSL_PARAM_locate(ptr noundef %70, ptr noundef @.str.16)
  store ptr %71, ptr %8, align 8, !tbaa !25
  %72 = call i32 @test_ptr(ptr noundef @.str.17, i32 noundef 807, ptr noundef @.str.152, ptr noundef %71)
  %73 = icmp ne i32 %72, 0
  br i1 %73, label %74, label %105

74:                                               ; preds = %69
  %75 = load ptr, ptr %8, align 8, !tbaa !25
  %76 = call i32 @OSSL_PARAM_get_int(ptr noundef %75, ptr noundef %2)
  %77 = icmp ne i32 %76, 0
  %78 = zext i1 %77 to i32
  %79 = call i32 @test_true(ptr noundef @.str.17, i32 noundef 808, ptr noundef @.str.147, i32 noundef %78)
  %80 = icmp ne i32 %79, 0
  br i1 %80, label %81, label %105

81:                                               ; preds = %74
  %82 = load i32, ptr %2, align 4, !tbaa !4
  %83 = call i32 @test_int_eq(ptr noundef @.str.17, i32 noundef 809, ptr noundef @.str.148, ptr noundef @.str.19, i32 noundef %82, i32 noundef 1)
  %84 = icmp ne i32 %83, 0
  br i1 %84, label %85, label %105

85:                                               ; preds = %81
  %86 = load ptr, ptr %7, align 8, !tbaa !25
  %87 = call ptr @OSSL_PARAM_locate(ptr noundef %86, ptr noundef @.str.58)
  store ptr %87, ptr %8, align 8, !tbaa !25
  %88 = call i32 @test_ptr(ptr noundef @.str.17, i32 noundef 810, ptr noundef @.str.153, ptr noundef %87)
  %89 = icmp ne i32 %88, 0
  br i1 %89, label %90, label %105

90:                                               ; preds = %85
  %91 = load ptr, ptr %8, align 8, !tbaa !25
  %92 = call i32 @OSSL_PARAM_get_int(ptr noundef %91, ptr noundef %2)
  %93 = icmp ne i32 %92, 0
  %94 = zext i1 %93 to i32
  %95 = call i32 @test_true(ptr noundef @.str.17, i32 noundef 811, ptr noundef @.str.147, i32 noundef %94)
  %96 = icmp ne i32 %95, 0
  br i1 %96, label %97, label %105

97:                                               ; preds = %90
  %98 = load i32, ptr %2, align 4, !tbaa !4
  %99 = call i32 @test_int_eq(ptr noundef @.str.17, i32 noundef 812, ptr noundef @.str.148, ptr noundef @.str.150, i32 noundef %98, i32 noundef 2)
  %100 = icmp ne i32 %99, 0
  br i1 %100, label %101, label %105

101:                                              ; preds = %97
  %102 = call ptr @OSSL_PARAM_merge(ptr noundef null, ptr noundef null)
  %103 = call i32 @test_ptr_null(ptr noundef @.str.17, i32 noundef 813, ptr noundef @.str.154, ptr noundef %102)
  %104 = icmp ne i32 %103, 0
  br label %105

105:                                              ; preds = %101, %97, %90, %85, %81, %74, %69, %64, %60, %53, %48, %44, %37, %32, %27, %0
  %106 = phi i1 [ false, %97 ], [ false, %90 ], [ false, %85 ], [ false, %81 ], [ false, %74 ], [ false, %69 ], [ false, %64 ], [ false, %60 ], [ false, %53 ], [ false, %48 ], [ false, %44 ], [ false, %37 ], [ false, %32 ], [ false, %27 ], [ false, %0 ], [ %104, %101 ]
  %107 = zext i1 %106 to i32
  store i32 %107, ptr %1, align 4, !tbaa !4
  %108 = load ptr, ptr %7, align 8, !tbaa !25
  call void @OSSL_PARAM_free(ptr noundef %108)
  %109 = load ptr, ptr %6, align 8, !tbaa !25
  call void @OSSL_PARAM_free(ptr noundef %109)
  %110 = load i32, ptr %1, align 4, !tbaa !4
  call void @llvm.lifetime.end.p0(i64 120, ptr %9) #5
  call void @llvm.lifetime.end.p0(i64 8, ptr %8) #5
  call void @llvm.lifetime.end.p0(i64 8, ptr %7) #5
  call void @llvm.lifetime.end.p0(i64 8, ptr %6) #5
  call void @llvm.lifetime.end.p0(i64 4, ptr %5) #5
  call void @llvm.lifetime.end.p0(i64 4, ptr %4) #5
  call void @llvm.lifetime.end.p0(i64 4, ptr %3) #5
  call void @llvm.lifetime.end.p0(i64 4, ptr %2) #5
  call void @llvm.lifetime.end.p0(i64 4, ptr %1) #5
  ret i32 %110
}