; Function Attrs: nounwind uwtable
define internal range(i32 0, 2) i32 @test_param_copy_null() #0 {
  %1 = alloca i32, align 4
  %2 = alloca i32, align 4
  %3 = alloca i32, align 4
  %4 = alloca [3 x %struct.ossl_param_st], align 16
  %5 = alloca %struct.ossl_param_st, align 8
  %6 = alloca %struct.ossl_param_st, align 8
  call void @llvm.lifetime.start.p0(i64 4, ptr nonnull %1) #5
  call void @llvm.lifetime.start.p0(i64 4, ptr nonnull %2) #5
  store i32 1, ptr %2, align 4, !tbaa !14
  call void @llvm.lifetime.start.p0(i64 4, ptr nonnull %3) #5
  store i32 2, ptr %3, align 4, !tbaa !14
  call void @llvm.lifetime.start.p0(i64 120, ptr nonnull %4) #5
  call void @OSSL_PARAM_construct_int(ptr dead_on_unwind nonnull writable sret(%struct.ossl_param_st) align 8 %4, ptr noundef nonnull @.str.16, ptr noundef nonnull %2) #5
  %7 = getelementptr inbounds nuw i8, ptr %4, i64 40
  call void @llvm.lifetime.start.p0(i64 40, ptr nonnull %5) #5
  call void @OSSL_PARAM_construct_int(ptr dead_on_unwind nonnull writable sret(%struct.ossl_param_st) align 8 %5, ptr noundef nonnull @.str.58, ptr noundef nonnull %3) #5
  call void @llvm.memcpy.p0.p0.i64(ptr noundef nonnull align 8 dereferenceable(40) %7, ptr noundef nonnull align 8 dereferenceable(40) %5, i64 40, i1 false), !tbaa.struct !26
  call void @llvm.lifetime.end.p0(i64 40, ptr nonnull %5) #5
  %8 = getelementptr inbounds nuw i8, ptr %4, i64 80
  call void @llvm.lifetime.start.p0(i64 40, ptr nonnull %6) #5
  call void @OSSL_PARAM_construct_end(ptr dead_on_unwind nonnull writable sret(%struct.ossl_param_st) align 8 %6) #5
  call void @llvm.memcpy.p0.p0.i64(ptr noundef nonnull align 16 dereferenceable(40) %8, ptr noundef nonnull align 8 dereferenceable(40) %6, i64 40, i1 false), !tbaa.struct !26
  call void @llvm.lifetime.end.p0(i64 40, ptr nonnull %6) #5
  %9 = call ptr @OSSL_PARAM_dup(ptr noundef null) #5
  %10 = call i32 @test_ptr_null(ptr noundef nonnull @.str.17, i32 noundef 798, ptr noundef nonnull @.str.144, ptr noundef %9) #5
  %.not = icmp eq i32 %10, 0
  br i1 %.not, label %66, label %11

11:                                               ; preds = %0
  %12 = call ptr @OSSL_PARAM_merge(ptr noundef null, ptr noundef nonnull %4) #5
  %13 = call i32 @test_ptr(ptr noundef nonnull @.str.17, i32 noundef 799, ptr noundef nonnull @.str.145, ptr noundef %12) #5
  %.not14 = icmp eq i32 %13, 0
  br i1 %.not14, label %66, label %14

14:                                               ; preds = %11
  %15 = call ptr @OSSL_PARAM_locate(ptr noundef %12, ptr noundef nonnull @.str.16) #5
  %16 = call i32 @test_ptr(ptr noundef nonnull @.str.17, i32 noundef 800, ptr noundef nonnull @.str.146, ptr noundef %15) #5
  %.not15 = icmp eq i32 %16, 0
  br i1 %.not15, label %66, label %17

17:                                               ; preds = %14
  %18 = call i32 @OSSL_PARAM_get_int(ptr noundef %15, ptr noundef nonnull %1) #5
  %19 = icmp ne i32 %18, 0
  %20 = zext i1 %19 to i32
  %21 = call i32 @test_true(ptr noundef nonnull @.str.17, i32 noundef 801, ptr noundef nonnull @.str.147, i32 noundef %20) #5
  %.not16 = icmp eq i32 %21, 0
  br i1 %.not16, label %66, label %22

22:                                               ; preds = %17
  %23 = load i32, ptr %1, align 4, !tbaa !14
  %24 = call i32 @test_int_eq(ptr noundef nonnull @.str.17, i32 noundef 802, ptr noundef nonnull @.str.148, ptr noundef nonnull @.str.19, i32 noundef %23, i32 noundef 1) #5
  %.not17 = icmp eq i32 %24, 0
  br i1 %.not17, label %66, label %25

25:                                               ; preds = %22
  %26 = call ptr @OSSL_PARAM_locate(ptr noundef %12, ptr noundef nonnull @.str.58) #5
  %27 = call i32 @test_ptr(ptr noundef nonnull @.str.17, i32 noundef 803, ptr noundef nonnull @.str.149, ptr noundef %26) #5
  %.not18 = icmp eq i32 %27, 0
  br i1 %.not18, label %66, label %28

28:                                               ; preds = %25
  %29 = call i32 @OSSL_PARAM_get_int(ptr noundef %26, ptr noundef nonnull %1) #5
  %30 = icmp ne i32 %29, 0
  %31 = zext i1 %30 to i32
  %32 = call i32 @test_true(ptr noundef nonnull @.str.17, i32 noundef 804, ptr noundef nonnull @.str.147, i32 noundef %31) #5
  %.not19 = icmp eq i32 %32, 0
  br i1 %.not19, label %66, label %33

33:                                               ; preds = %28
  %34 = load i32, ptr %1, align 4, !tbaa !14
  %35 = call i32 @test_int_eq(ptr noundef nonnull @.str.17, i32 noundef 805, ptr noundef nonnull @.str.148, ptr noundef nonnull @.str.150, i32 noundef %34, i32 noundef 2) #5
  %.not20 = icmp eq i32 %35, 0
  br i1 %.not20, label %66, label %36

36:                                               ; preds = %33
  %37 = call ptr @OSSL_PARAM_merge(ptr noundef nonnull %4, ptr noundef null) #5
  %38 = call i32 @test_ptr(ptr noundef nonnull @.str.17, i32 noundef 806, ptr noundef nonnull @.str.151, ptr noundef %37) #5
  %.not21 = icmp eq i32 %38, 0
  br i1 %.not21, label %66, label %39

39:                                               ; preds = %36
  %40 = call ptr @OSSL_PARAM_locate(ptr noundef %37, ptr noundef nonnull @.str.16) #5
  %41 = call i32 @test_ptr(ptr noundef nonnull @.str.17, i32 noundef 807, ptr noundef nonnull @.str.152, ptr noundef %40) #5
  %.not22 = icmp eq i32 %41, 0
  br i1 %.not22, label %66, label %42

42:                                               ; preds = %39
  %43 = call i32 @OSSL_PARAM_get_int(ptr noundef %40, ptr noundef nonnull %1) #5
  %44 = icmp ne i32 %43, 0
  %45 = zext i1 %44 to i32
  %46 = call i32 @test_true(ptr noundef nonnull @.str.17, i32 noundef 808, ptr noundef nonnull @.str.147, i32 noundef %45) #5
  %.not23 = icmp eq i32 %46, 0
  br i1 %.not23, label %66, label %47

47:                                               ; preds = %42
  %48 = load i32, ptr %1, align 4, !tbaa !14
  %49 = call i32 @test_int_eq(ptr noundef nonnull @.str.17, i32 noundef 809, ptr noundef nonnull @.str.148, ptr noundef nonnull @.str.19, i32 noundef %48, i32 noundef 1) #5
  %.not24 = icmp eq i32 %49, 0
  br i1 %.not24, label %66, label %50

50:                                               ; preds = %47
  %51 = call ptr @OSSL_PARAM_locate(ptr noundef %37, ptr noundef nonnull @.str.58) #5
  %52 = call i32 @test_ptr(ptr noundef nonnull @.str.17, i32 noundef 810, ptr noundef nonnull @.str.153, ptr noundef %51) #5
  %.not25 = icmp eq i32 %52, 0
  br i1 %.not25, label %66, label %53

53:                                               ; preds = %50
  %54 = call i32 @OSSL_PARAM_get_int(ptr noundef %51, ptr noundef nonnull %1) #5
  %55 = icmp ne i32 %54, 0
  %56 = zext i1 %55 to i32
  %57 = call i32 @test_true(ptr noundef nonnull @.str.17, i32 noundef 811, ptr noundef nonnull @.str.147, i32 noundef %56) #5
  %.not26 = icmp eq i32 %57, 0
  br i1 %.not26, label %66, label %58

58:                                               ; preds = %53
  %59 = load i32, ptr %1, align 4, !tbaa !14
  %60 = call i32 @test_int_eq(ptr noundef nonnull @.str.17, i32 noundef 812, ptr noundef nonnull @.str.148, ptr noundef nonnull @.str.150, i32 noundef %59, i32 noundef 2) #5
  %.not27 = icmp eq i32 %60, 0
  br i1 %.not27, label %66, label %61

61:                                               ; preds = %58
  %62 = call ptr @OSSL_PARAM_merge(ptr noundef null, ptr noundef null) #5
  %63 = call i32 @test_ptr_null(ptr noundef nonnull @.str.17, i32 noundef 813, ptr noundef nonnull @.str.154, ptr noundef %62) #5
  %64 = icmp ne i32 %63, 0
  %65 = zext i1 %64 to i32
  br label %66

66:                                               ; preds = %61, %58, %53, %50, %47, %42, %39, %36, %33, %28, %25, %22, %17, %14, %11, %0
  %.013 = phi ptr [ %12, %61 ], [ %12, %58 ], [ %12, %53 ], [ %12, %50 ], [ %12, %47 ], [ %12, %42 ], [ %12, %39 ], [ %12, %36 ], [ %12, %33 ], [ %12, %28 ], [ %12, %25 ], [ %12, %22 ], [ %12, %17 ], [ %12, %14 ], [ %12, %11 ], [ null, %0 ]
  %.0 = phi ptr [ %37, %61 ], [ %37, %58 ], [ %37, %53 ], [ %37, %50 ], [ %37, %47 ], [ %37, %42 ], [ %37, %39 ], [ %37, %36 ], [ null, %33 ], [ null, %28 ], [ null, %25 ], [ null, %22 ], [ null, %17 ], [ null, %14 ], [ null, %11 ], [ null, %0 ]
  %67 = phi i32 [ %65, %61 ], [ 0, %58 ], [ 0, %53 ], [ 0, %50 ], [ 0, %47 ], [ 0, %42 ], [ 0, %39 ], [ 0, %36 ], [ 0, %33 ], [ 0, %28 ], [ 0, %25 ], [ 0, %22 ], [ 0, %17 ], [ 0, %14 ], [ 0, %11 ], [ 0, %0 ]
  call void @OSSL_PARAM_free(ptr noundef %.0) #5
  call void @OSSL_PARAM_free(ptr noundef %.013) #5
  call void @llvm.lifetime.end.p0(i64 120, ptr nonnull %4) #5
  call void @llvm.lifetime.end.p0(i64 4, ptr nonnull %3) #5
  call void @llvm.lifetime.end.p0(i64 4, ptr nonnull %2) #5
  call void @llvm.lifetime.end.p0(i64 4, ptr nonnull %1) #5
  ret i32 %67
}